; ModuleID = 'bench/abseil-cpp/original/log_sink.ll'
source_filename = "bench/abseil-cpp/original/log_sink.ll"
target datalayout = "e-m:e-p270:32:32-p271:32:32-p272:64:64-i64:64-i128:128-f80:128-n8:16:32:64-S128"
target triple = "x86_64-pc-linux-gnu"

$_ZN4absl7LogSinkD2Ev = comdat any

$_ZN4absl7LogSinkD0Ev = comdat any

$_ZN4absl7LogSink5FlushEv = comdat any

@_ZTVN4absl7LogSinkE = dso_local unnamed_addr constant { [7 x ptr] } { [7 x ptr] [ptr null, ptr @_ZTIN4absl7LogSinkE, ptr @_ZN4absl7LogSinkD2Ev, ptr @_ZN4absl7LogSinkD0Ev, ptr @__cxa_pure_virtual, ptr @_ZN4absl7LogSink5FlushEv, ptr @_ZNK4absl7LogSink11KeyFunctionEv] }, align 8
@_ZTIN4absl7LogSinkE = dso_local constant { ptr, ptr } { ptr getelementptr inbounds (ptr, ptr @_ZTVN10__cxxabiv117__class_type_infoE, i64 2), ptr @_ZTSN4absl7LogSinkE }, align 8
@_ZTVN10__cxxabiv117__class_type_infoE = external global [0 x ptr]
@_ZTSN4absl7LogSinkE = dso_local constant [16 x i8] c"N4absl7LogSinkE\00", align 1

; Function Attrs: mustprogress nofree norecurse nosync nounwind willreturn memory(none) uwtable
define dso_local void @_ZNK4absl7LogSink11KeyFunctionEv(ptr nonnull readnone align 8 captures(none) %0) unnamed_addr #0 align 2 {
  ret void
}

; Function Attrs: mustprogress nounwind uwtable
define linkonce_odr dso_local void @_ZN4absl7LogSinkD2Ev(ptr noundef nonnull align 8 dereferenceable(8) %0) unnamed_addr #1 comdat align 2 {
  ret void
}

; Function Attrs: mustprogress nounwind uwtable
define linkonce_odr dso_local void @_ZN4absl7LogSinkD0Ev(ptr noundef nonnull align 8 dereferenceable(8) %0) unnamed_addr #1 comdat align 2 {
  tail call void @llvm.trap() #3
  unreachable
}

declare void @__cxa_pure_virtual() unnamed_addr

; Function Attrs: mustprogress nounwind uwtable
define linkonce_odr dso_local void @_ZN4absl7LogSink5FlushEv(ptr noundef nonnull align 8 dereferenceable(8) %0) unnamed_addr #1 comdat align 2 {
  ret void
}

; Function Attrs: cold noreturn nounwind memory(inaccessiblemem: write)
declare void @llvm.trap() #2


!llvm.module.flags = !{!0, !1, !2, !3}

!0 = !{i32 1, !"wchar_size", i32 4}
!1 = !{i32 8, !"PIC Level", i32 2}
!2 = !{i32 7, !"PIE Level", i32 2}
!3 = !{i32 7, !"uwtable", i32 2}
